Certificate:
    Data:
        Version: 3 (0x2)
        Serial Number:
            ba:a5:47:c6:c8:85:1f:f8
    Signature Algorithm: sha256WithRSAEncryption
        Issuer: C=HK, CN=abc.com
        Validity
            Not Before: Nov 14 02:59:35 2017 GMT
            Not After : Nov 13 02:59:35 2020 GMT
        Subject: C=HK, CN=abc.com
        Subject Public Key Info:
            Public Key Algorithm: rsaEncryption
                Public-Key: (2048 bit)
                Modulus:
                    00:bd:70:e6:2d:36:40:b9:17:c9:19:2a:5d:fa:a4:
                    6c:3f:e6:30:3e:93:ea:b0:4a:b8:45:2a:4f:93:5d:
                    c2:5b:58:4d:51:5e:4e:28:d3:7c:6e:12:18:d4:9d:
                    f1:72:60:b8:27:9a:1e:23:fe:9d:43:8b:25:36:31:
                    0c:aa:3f:f7:d3:b0:dc:d0:39:09:0b:68:1a:77:59:
                    f6:d8:0a:05:ce:dc:ad:53:73:47:a8:58:16:2f:49:
                    77:93:a2:cf:19:c8:28:59:a6:31:f9:5d:40:79:a1:
                    f8:c7:91:58:6b:cf:95:d8:e0:db:c9:8b:7f:ef:8b:
                    2b:eb:84:dd:8c:0e:9f:7d:90:ff:07:60:7b:c3:1b:
                    36:ea:62:96:ed:b2:6d:ef:88:3c:61:e6:3b:96:f4:
                    19:df:a5:b4:26:19:3f:10:83:14:f5:e2:d3:67:c1:
                    b1:84:c1:18:40:a9:89:67:0e:b2:24:b5:29:3e:9b:
                    cc:cc:c8:a5:f7:07:b3:40:2d:92:66:06:dc:9f:25:
                    da:e6:05:b2:6f:ab:69:4d:a3:c5:e5:03:c1:82:53:
                    27:73:6d:14:43:e3:b7:54:eb:96:6c:0b:ba:2c:1e:
                    80:75:e4:a2:c6:e3:73:08:4d:25:11:63:1e:22:f7:
                    fd:94:ca:7c:3c:95:31:97:a2:f6:81:6b:bf:66:59:
                    18:b9
                Exponent: 65537 (0x10001)
        X509v3 extensions:
            X509v3 Subject Key Identifier: 
                C0:CC:F5:EA:07:8F:3D:BC:03:05:ED:D9:8A:23:11:DE:70:40:47:C1
            X509v3 Authority Key Identifier: 
                keyid:C0:CC:F5:EA:07:8F:3D:BC:03:05:ED:D9:8A:23:11:DE:70:40:47:C1

            X509v3 Basic Constraints: 
                CA:TRUE
    Signature Algorithm: sha256WithRSAEncryption
         8a:70:02:93:e2:3f:3f:44:c7:0e:f3:75:14:35:81:2e:54:f7:
         ce:91:31:2c:f9:01:7d:2c:4c:c5:1f:19:b6:46:7a:ea:81:18:
         80:68:a1:9a:7f:8e:6f:cf:47:9f:dd:42:df:2b:48:30:9c:37:
         73:0f:59:ce:eb:86:d9:a2:d8:3e:ae:93:97:d0:57:81:bf:b9:
         04:44:38:1b:90:1a:e7:48:97:c9:45:88:67:e8:be:cd:8a:67:
         1c:d9:75:ff:82:5e:23:9b:82:aa:60:dc:6d:26:b4:26:96:2e:
         bd:7b:d3:a1:1f:b0:c9:78:71:fa:25:3e:75:63:62:a5:18:dc:
         1f:5d:0f:d5:d0:f0:6e:bb:d3:7c:0a:5c:21:f1:5c:3b:5d:c3:
         0b:45:3d:79:03:c1:d3:e7:cd:1a:75:71:c7:02:47:88:02:07:
         87:95:a0:f7:fb:68:07:39:89:22:05:a9:14:f0:f4:55:fb:26:
         eb:89:f9:92:b0:4f:b4:48:4c:20:52:2d:6d:6b:a2:ac:d1:f1:
         cb:a6:f0:b5:40:06:ee:d7:d6:83:83:2a:99:ff:ae:ba:ad:99:
         c1:3d:27:ec:d4:20:22:c1:9f:03:32:fb:5b:ec:60:4d:21:d1:
         9f:46:19:df:ee:71:36:0a:67:e8:53:55:8e:c9:e3:be:35:75:
         aa:2e:27:9c
-----BEGIN CERTIFICATE-----
MIIDETCCAfmgAwIBAgIJALqlR8bIhR/4MA0GCSqGSIb3DQEBCwUAMB8xCzAJBgNV
BAYTAkhLMRAwDgYDVQQDDAdhYmMuY29tMB4XDTE3MTExNDAyNTkzNVoXDTIwMTEx
MzAyNTkzNVowHzELMAkGA1UEBhMCSEsxEDAOBgNVBAMMB2FiYy5jb20wggEiMA0G
CSqGSIb3DQEBAQUAA4IBDwAwggEKAoIBAQC9cOYtNkC5F8kZKl36pGw/5jA+k+qw
SrhFKk+TXcJbWE1RXk4o03xuEhjUnfFyYLgnmh4j/p1DiyU2MQyqP/fTsNzQOQkL
aBp3WfbYCgXO3K1Tc0eoWBYvSXeTos8ZyChZpjH5XUB5ofjHkVhrz5XY4NvJi3/v
iyvrhN2MDp99kP8HYHvDGzbqYpbtsm3viDxh5juW9BnfpbQmGT8QgxT14tNnwbGE
wRhAqYlnDrIktSk+m8zMyKX3B7NALZJmBtyfJdrmBbJvq2lNo8XlA8GCUydzbRRD
47dU65ZsC7osHoB15KLG43MITSURYx4i9/2Uynw8lTGXovaBa79mWRi5AgMBAAGj
UDBOMB0GA1UdDgQWBBTAzPXqB489vAMF7dmKIxHecEBHwTAfBgNVHSMEGDAWgBTA
zPXqB489vAMF7dmKIxHecEBHwTAMBgNVHRMEBTADAQH/MA0GCSqGSIb3DQEBCwUA
A4IBAQCKcAKT4j8/RMcO83UUNYEuVPfOkTEs+QF9LEzFHxm2RnrqgRiAaKGaf45v
z0ef3ULfK0gwnDdzD1nO64bZotg+rpOX0FeBv7kERDgbkBrnSJfJRYhn6L7Nimcc
2XX/gl4jm4KqYNxtJrQmli69e9OhH7DJeHH6JT51Y2KlGNwfXQ/V0PBuu9N8Clwh
8Vw7XcMLRT15A8HT580adXHHAkeIAgeHlaD3+2gHOYkiBakU8PRV+ybrifmSsE+0
SEwgUi1ta6Ks0fHLpvC1QAbu19aDgyqZ/666rZnBPSfs1CAiwZ8DMvtb7GBNIdGf
Rhnf7nE2CmfoU1WOyeO+NXWqLiec
-----END CERTIFICATE-----
